opt subtitle "HI-TECH Software Omniscient Code Generator (Lite mode) build 7503"

opt pagewidth 120

	opt lm

	processor	16F877A
clrc	macro
	bcf	3,0
	endm
clrz	macro
	bcf	3,2
	endm
setc	macro
	bsf	3,0
	endm
setz	macro
	bsf	3,2
	endm
skipc	macro
	btfss	3,0
	endm
skipz	macro
	btfss	3,2
	endm
skipnc	macro
	btfsc	3,0
	endm
skipnz	macro
	btfsc	3,2
	endm
indf	equ	0
indf0	equ	0
pc	equ	2
pcl	equ	2
status	equ	3
fsr	equ	4
fsr0	equ	4
c	equ	1
z	equ	0
pclath	equ	10
# 3 "C:\Users\r_m_a\Desktop\UART TO GSM\sam29-7-2022\message.c"
	psect config,class=CONFIG,delta=2 ;#
# 3 "C:\Users\r_m_a\Desktop\UART TO GSM\sam29-7-2022\message.c"
	dw 0x1F7A ;#
	FNCALL	_main,_uart_init
	FNCALL	_main,_pir_sensor
	FNCALL	_pir_sensor,_LED
	FNCALL	_pir_sensor,_uart_print
	FNCALL	_pir_sensor,_Uart_tx
	FNCALL	_uart_print,_Uart_tx
	FNROOT	_main
	global	_noecho
	global	_terminator
	global	_atcall
	global	_stop
	global	_char_mode
	global	_mesg
	global	_mode_text
	global	_AT
	global	_mobile_no
	global	_param
	global	_nomesg
	global	_ph
psect	idataBANK0,class=CODE,space=0,delta=2
global __pidataBANK0
__pidataBANK0:
	file	"C:\Users\r_m_a\Desktop\UART TO GSM\sam29-7-2022\message.c"
	line	13

;initializer for _noecho
	retlw	041h
	retlw	054h
	retlw	045h
	retlw	030h
	retlw	0Dh
	retlw	0Ah
	retlw	0
	line	18

;initializer for _terminator
	retlw	043h
	retlw	054h
	retlw	052h
	retlw	04Ch
	retlw	02Bh
	retlw	05Ah
	retlw	0
	line	11

;initializer for _atcall
	retlw	041h
	retlw	054h
	retlw	041h
	retlw	0Dh
	retlw	0Ah
	retlw	0
psect	idataCOMMON,class=CODE,space=0,delta=2
global __pidataCOMMON
__pidataCOMMON:
	line	22

;initializer for _stop
	retlw	041h
	retlw	054h
	retlw	048h
	retlw	0
psect	idataBANK0
	line	15

;initializer for _char_mode
	retlw	041h
	retlw	054h
	retlw	02Bh
	retlw	043h
	retlw	053h
	retlw	043h
	retlw	053h
	retlw	03Dh
	retlw	022h
	retlw	047h
	retlw	053h
	retlw	04Dh
	retlw	022h
	retlw	0Dh
	retlw	0Ah
	retlw	0
	line	19

;initializer for _mesg
	retlw	048h
	retlw	075h
	retlw	06Dh
	retlw	061h
	retlw	06Eh
	retlw	020h
	retlw	044h
	retlw	065h
	retlw	074h
	retlw	065h
	retlw	063h
	retlw	074h
	retlw	065h
	retlw	064h
	retlw	0
	line	14

;initializer for _mode_text
	retlw	041h
	retlw	054h
	retlw	02Bh
	retlw	043h
	retlw	04Dh
	retlw	047h
	retlw	046h
	retlw	03Dh
	retlw	031h
	retlw	0Dh
	retlw	0Ah
	retlw	0
	line	12

;initializer for _AT
	retlw	041h
	retlw	054h
	retlw	0Dh
	retlw	0Ah
	retlw	0
psect	idataBANK1,class=CODE,space=0,delta=2
global __pidataBANK1
__pidataBANK1:
	line	17

;initializer for _mobile_no
	retlw	041h
	retlw	054h
	retlw	02Bh
	retlw	043h
	retlw	04Dh
	retlw	047h
	retlw	053h
	retlw	03Dh
	retlw	022h
	retlw	039h
	retlw	034h
	retlw	038h
	retlw	037h
	retlw	038h
	retlw	035h
	retlw	035h
	retlw	034h
	retlw	035h
	retlw	030h
	retlw	022h
	retlw	0Dh
	retlw	0Ah
	retlw	0
	line	16

;initializer for _param
	retlw	041h
	retlw	054h
	retlw	02Bh
	retlw	043h
	retlw	053h
	retlw	04Dh
	retlw	050h
	retlw	03Dh
	retlw	031h
	retlw	037h
	retlw	02Ch
	retlw	031h
	retlw	036h
	retlw	037h
	retlw	02Ch
	retlw	030h
	retlw	02Ch
	retlw	030h
	retlw	0Dh
	retlw	0Ah
	retlw	0
	line	20

;initializer for _nomesg
	retlw	048h
	retlw	075h
	retlw	06Dh
	retlw	061h
	retlw	06Eh
	retlw	020h
	retlw	06Eh
	retlw	06Fh
	retlw	074h
	retlw	020h
	retlw	044h
	retlw	065h
	retlw	074h
	retlw	065h
	retlw	063h
	retlw	074h
	retlw	065h
	retlw	064h
	retlw	0
	line	21

;initializer for _ph
	retlw	041h
	retlw	054h
	retlw	044h
	retlw	039h
	retlw	034h
	retlw	038h
	retlw	037h
	retlw	038h
	retlw	035h
	retlw	035h
	retlw	034h
	retlw	035h
	retlw	030h
	retlw	03Bh
	retlw	0Dh
	retlw	0Ah
	retlw	0
	global	_RCREG
_RCREG	set	26
	global	_RCSTA
_RCSTA	set	24
	global	_TXREG
_TXREG	set	25
	global	_RCIF
_RCIF	set	101
	global	_RD0
_RD0	set	64
	global	_RD1
_RD1	set	65
	global	_TXIF
_TXIF	set	100
	global	_SPBRG
_SPBRG	set	153
	global	_TXSTA
_TXSTA	set	152
	global	_TRISC6
_TRISC6	set	1086
	global	_TRISC7
_TRISC7	set	1087
	global	_TRISD0
_TRISD0	set	1088
	global	_TRISD1
_TRISD1	set	1089
	file	"gsm.as"
	line	#
psect cinit,class=CODE,delta=2
global start_initialization
start_initialization:

psect	dataCOMMON,class=COMMON,space=1
global __pdataCOMMON
__pdataCOMMON:
	file	"C:\Users\r_m_a\Desktop\UART TO GSM\sam29-7-2022\message.c"
	line	22
_stop:
       ds      4

psect	dataBANK0,class=BANK0,space=1
global __pdataBANK0
__pdataBANK0:
	file	"C:\Users\r_m_a\Desktop\UART TO GSM\sam29-7-2022\message.c"
	line	13
_noecho:
       ds      7

psect	dataBANK0
	file	"C:\Users\r_m_a\Desktop\UART TO GSM\sam29-7-2022\message.c"
	line	18
_terminator:
       ds      7

psect	dataBANK0
	file	"C:\Users\r_m_a\Desktop\UART TO GSM\sam29-7-2022\message.c"
	line	11
_atcall:
       ds      6

psect	dataBANK0
	file	"C:\Users\r_m_a\Desktop\UART TO GSM\sam29-7-2022\message.c"
	line	15
_char_mode:
       ds      16

psect	dataBANK0
	file	"C:\Users\r_m_a\Desktop\UART TO GSM\sam29-7-2022\message.c"
	line	19
_mesg:
       ds      15

psect	dataBANK0
	file	"C:\Users\r_m_a\Desktop\UART TO GSM\sam29-7-2022\message.c"
	line	14
_mode_text:
       ds      12

psect	dataBANK0
	file	"C:\Users\r_m_a\Desktop\UART TO GSM\sam29-7-2022\message.c"
	line	12
_AT:
       ds      5

psect	dataBANK1,class=BANK1,space=1
global __pdataBANK1
__pdataBANK1:
	file	"C:\Users\r_m_a\Desktop\UART TO GSM\sam29-7-2022\message.c"
	line	17
_mobile_no:
       ds      23

psect	dataBANK1
	file	"C:\Users\r_m_a\Desktop\UART TO GSM\sam29-7-2022\message.c"
	line	16
_param:
       ds      21

psect	dataBANK1
	file	"C:\Users\r_m_a\Desktop\UART TO GSM\sam29-7-2022\message.c"
	line	20
_nomesg:
       ds      19

psect	dataBANK1
	file	"C:\Users\r_m_a\Desktop\UART TO GSM\sam29-7-2022\message.c"
	line	21
_ph:
       ds      17

global btemp
psect inittext,class=CODE,delta=2
global init_fetch,btemp
;	Called with low address in FSR and high address in W
init_fetch:
	movf btemp,w
	movwf pclath
	movf btemp+1,w
	movwf pc
global init_ram
;Called with:
;	high address of idata address in btemp 
;	low address of idata address in btemp+1 
;	low address of data in FSR
;	high address + 1 of data in btemp-1
init_ram:
	fcall init_fetch
	movwf indf,f
	incf fsr,f
	movf fsr,w
	xorwf btemp-1,w
	btfsc status,2
	retlw 0
	incf btemp+1,f
	btfsc status,2
	incf btemp,f
	goto init_ram
; Initialize objects allocated to BANK1
psect cinit,class=CODE,delta=2
global init_ram, __pidataBANK1
	bcf	status, 7	;select IRP bank0
	movlw low(__pdataBANK1+80)
	movwf btemp-1,f
	movlw high(__pidataBANK1)
	movwf btemp,f
	movlw low(__pidataBANK1)
	movwf btemp+1,f
	movlw low(__pdataBANK1)
	movwf fsr,f
	fcall init_ram
; Initialize objects allocated to BANK0
psect cinit,class=CODE,delta=2
global init_ram, __pidataBANK0
	movlw low(__pdataBANK0+68)
	movwf btemp-1,f
	movlw high(__pidataBANK0)
	movwf btemp,f
	movlw low(__pidataBANK0)
	movwf btemp+1,f
	movlw low(__pdataBANK0)
	movwf fsr,f
	fcall init_ram
; Initialize objects allocated to COMMON
	global __pidataCOMMON
psect cinit,class=CODE,delta=2
	fcall	__pidataCOMMON+0		;fetch initializer
	movwf	__pdataCOMMON+0&07fh		
	fcall	__pidataCOMMON+1		;fetch initializer
	movwf	__pdataCOMMON+1&07fh		
	fcall	__pidataCOMMON+2		;fetch initializer
	movwf	__pdataCOMMON+2&07fh		
	fcall	__pidataCOMMON+3		;fetch initializer
	movwf	__pdataCOMMON+3&07fh		
psect cinit,class=CODE,delta=2
global end_of_initialization

;End of C runtime variable initialization code

end_of_initialization:
clrf status
ljmp _main	;jump to C main() function
psect	cstackCOMMON,class=COMMON,space=1
global __pcstackCOMMON
__pcstackCOMMON:
	global	?_Uart_tx
?_Uart_tx:	; 0 bytes @ 0x0
	global	??_Uart_tx
??_Uart_tx:	; 0 bytes @ 0x0
	global	?_LED
?_LED:	; 0 bytes @ 0x0
	global	??_LED
??_LED:	; 0 bytes @ 0x0
	global	?_uart_print
?_uart_print:	; 0 bytes @ 0x0
	global	??_uart_init
??_uart_init:	; 0 bytes @ 0x0
	global	?_pir_sensor
?_pir_sensor:	; 0 bytes @ 0x0
	global	?_uart_init
?_uart_init:	; 1 bytes @ 0x0
	global	?_main
?_main:	; 2 bytes @ 0x0
	global	Uart_tx@data
Uart_tx@data:	; 1 bytes @ 0x0
	ds	1
	global	??_uart_print
??_uart_print:	; 0 bytes @ 0x1
	ds	1
	global	uart_print@str
uart_print@str:	; 1 bytes @ 0x2
	ds	1
	global	??_pir_sensor
??_pir_sensor:	; 0 bytes @ 0x3
	ds	3
	global	pir_sensor@j
pir_sensor@j:	; 2 bytes @ 0x6
	ds	2
	global	??_main
??_main:	; 0 bytes @ 0x8
;;Data sizes: Strings 0, constant 0, data 152, bss 0, persistent 0 stack 0
;;Auto spaces:   Size  Autos    Used
;; COMMON          14      8      12
;; BANK0           80      0      68
;; BANK1           80      0      80
;; BANK3           96      0       0
;; BANK2           96      0       0

;;
;; Pointer list with targets:

;; uart_print@str	PTR unsigned char  size(1) Largest target is 23
;;		 -> nomesg(BANK1[19]), mesg(BANK0[15]), mobile_no(BANK1[23]), param(BANK1[21]), 
;;		 -> char_mode(BANK0[16]), mode_text(BANK0[12]), ph(BANK1[17]), AT(BANK0[5]), 
;;


;;
;; Critical Paths under _main in COMMON
;;
;;   _main->_pir_sensor
;;   _pir_sensor->_uart_print
;;   _uart_print->_Uart_tx
;;
;; Critical Paths under _main in BANK0
;;
;;   None.
;;
;; Critical Paths under _main in BANK1
;;
;;   None.
;;
;; Critical Paths under _main in BANK3
;;
;;   None.
;;
;; Critical Paths under _main in BANK2
;;
;;   None.

;;
;;Main: autosize = 0, tempsize = 0, incstack = 0, save=0
;;

;;
;;Call Graph Tables:
;;
;; ---------------------------------------------------------------------------------
;; (Depth) Function   	        Calls       Base Space   Used Autos Params    Refs
;; ---------------------------------------------------------------------------------
;; (0) _main                                                 0     0      0     112
;;                          _uart_init
;;                         _pir_sensor
;; ---------------------------------------------------------------------------------
;; (1) _pir_sensor                                           5     5      0     112
;;                                              3 COMMON     5     5      0
;;                                _LED
;;                         _uart_print
;;                            _Uart_tx
;; ---------------------------------------------------------------------------------
;; (2) _uart_print                                           2     2      0      67
;;                                              1 COMMON     2     2      0
;;                            _Uart_tx
;; ---------------------------------------------------------------------------------
;; (1) _uart_init                                            0     0      0       0
;; ---------------------------------------------------------------------------------
;; (2) _LED                                                  0     0      0       0
;; ---------------------------------------------------------------------------------
;; (2) _Uart_tx                                              1     1      0      22
;;                                              0 COMMON     1     1      0
;; ---------------------------------------------------------------------------------
;; Estimated maximum stack depth 2
;; ---------------------------------------------------------------------------------

;; Call Graph Graphs:

;; _main (ROOT)
;;   _uart_init
;;   _pir_sensor
;;     _LED
;;     _uart_print
;;       _Uart_tx
;;     _Uart_tx
;;

;; Address spaces:

;;Name               Size   Autos  Total    Cost      Usage
;;BANK3               60      0       0       9        0.0%
;;BITBANK3            60      0       0       8        0.0%
;;SFR3                 0      0       0       4        0.0%
;;BITSFR3              0      0       0       4        0.0%
;;BANK2               60      0       0      11        0.0%
;;BITBANK2            60      0       0      10        0.0%
;;SFR2                 0      0       0       5        0.0%
;;BITSFR2              0      0       0       5        0.0%
;;SFR1                 0      0       0       2        0.0%
;;BITSFR1              0      0       0       2        0.0%
;;BANK1               50      0      50       7      100.0%
;;BITBANK1            50      0       0       6        0.0%
;;CODE                 0      0       0       0        0.0%
;;DATA                 0      0      A3      12        0.0%
;;ABS                  0      0      A0       3        0.0%
;;NULL                 0      0       0       0        0.0%
;;STACK                0      0       3       2        0.0%
;;BANK0               50      0      44       5       85.0%
;;BITBANK0            50      0       0       4        0.0%
;;SFR0                 0      0       0       1        0.0%
;;BITSFR0              0      0       0       1        0.0%
;;COMMON               E      8       C       1       85.7%
;;BITCOMMON            E      0       0       0        0.0%
;;EEDATA             100      0       0       0        0.0%

	global	_main
psect	maintext,global,class=CODE,delta=2
global __pmaintext
__pmaintext:

;; *************** function _main *****************
;; Defined at:
;;		line 113 in file "C:\Users\r_m_a\Desktop\UART TO GSM\sam29-7-2022\message.c"
;; Parameters:    Size  Location     Type
;;		None
;; Auto vars:     Size  Location     Type
;;		None
;; Return value:  Size  Location     Type
;;                  2  742[COMMON] int 
;; Registers used:
;;		wreg, fsr0l, fsr0h, status,2, status,0, pclath, cstack
;; Tracked objects:
;;		On entry : 17F/0
;;		On exit  : 0/0
;;		Unchanged: 0/0
;; Data sizes:     COMMON   BANK0   BANK1   BANK3   BANK2
;;      Params:         0       0       0       0       0
;;      Locals:         0       0       0       0       0
;;      Temps:          0       0       0       0       0
;;      Totals:         0       0       0       0       0
;;Total ram usage:        0 bytes
;; Hardware stack levels required when called:    3
;; This function calls:
;;		_uart_init
;;		_pir_sensor
;; This function is called by:
;;		Startup code after reset
;; This function uses a non-reentrant model
;;
psect	maintext
	file	"C:\Users\r_m_a\Desktop\UART TO GSM\sam29-7-2022\message.c"
	line	113
	global	__size_of_main
	__size_of_main	equ	__end_of_main-_main
	
_main:	
	opt	stack 5
; Regs used in _main: [wreg-fsr0h+status,2+status,0+pclath+cstack]
	line	114
	
l2007:	
;message.c: 114: uart_init();
	fcall	_uart_init
	goto	l2009
	line	115
;message.c: 115: while(1)
	
l743:	
	line	117
	
l2009:	
;message.c: 116: {
;message.c: 117: pir_sensor();
	fcall	_pir_sensor
	goto	l2009
	line	118
	
l744:	
	line	115
	goto	l2009
	
l745:	
	line	119
	
l746:	
	global	start
	ljmp	start
	opt stack 0
GLOBAL	__end_of_main
	__end_of_main:
;; =============== function _main ends ============

	signat	_main,90
	global	_pir_sensor
psect	text163,local,class=CODE,delta=2
global __ptext163
__ptext163:

;; *************** function _pir_sensor *****************
;; Defined at:
;;		line 72 in file "C:\Users\r_m_a\Desktop\UART TO GSM\sam29-7-2022\message.c"
;; Parameters:    Size  Location     Type
;;		None
;; Auto vars:     Size  Location     Type
;;  j               2    6[COMMON] int 
;; Return value:  Size  Location     Type
;;		None               void
;; Registers used:
;;		wreg, fsr0l, fsr0h, status,2, status,0, pclath, cstack
;; Tracked objects:
;;		On entry : 0/0
;;		On exit  : 0/0
;;		Unchanged: 0/0
;; Data sizes:     COMMON   BANK0   BANK1   BANK3   BANK2
;;      Params:         0       0       0       0       0
;;      Locals:         2       0       0       0       0
;;      Temps:          3       0       0       0       0
;;      Totals:         5       0       0       0       0
;;Total ram usage:        5 bytes
;; Hardware stack levels used:    1
;; Hardware stack levels required when called:    2
;; This function calls:
;;		_LED
;;		_uart_print
;;		_Uart_tx
;; This function is called by:
;;		_main
;; This function uses a non-reentrant model
;;
psect	text163
	file	"C:\Users\r_m_a\Desktop\UART TO GSM\sam29-7-2022\message.c"
	line	72
	global	__size_of_pir_sensor
	__size_of_pir_sensor	equ	__end_of_pir_sensor-_pir_sensor
	
_pir_sensor:	
	opt	stack 5
; Regs used in _pir_sensor: [wreg-fsr0h+status,2+status,0+pclath+cstack]
	line	73
	
l1969:	
;message.c: 73: int j=0;
	clrf	(pir_sensor@j)
	clrf	(pir_sensor@j+1)
	line	74
	
l1971:	
;message.c: 74: if(RD1==1)
	bcf	status, 5	;RP0=0, select bank0
	bcf	status, 6	;RP1=0, select bank0
	btfss	(65/8),(65)&7
	goto	u2221
	goto	u2220
u2221:
	goto	l1999
u2220:
	line	76
	
l1973:	
;message.c: 75: {
;message.c: 76: LED();
	fcall	_LED
	goto	l1977
	line	77
	
l1975:	
	goto	l1977
	
l738:	
	line	79
	
l1977:	
;message.c: 78: {
;message.c: 79: uart_print(AT);
	movlw	(_AT)&0ffh
	fcall	_uart_print
	line	80
	
l1979:	
;message.c: 80: _delay((unsigned long)((100)*(20000000/4000.0)));
	opt asmopt_off
movlw  3
movwf	((??_pir_sensor+0)+0+2),f
movlw	136
movwf	((??_pir_sensor+0)+0+1),f
	movlw	86
movwf	((??_pir_sensor+0)+0),f
u2237:
	decfsz	((??_pir_sensor+0)+0),f
	goto	u2237
	decfsz	((??_pir_sensor+0)+0+1),f
	goto	u2237
	decfsz	((??_pir_sensor+0)+0+2),f
	goto	u2237
opt asmopt_on

	line	82
	
l1981:	
;message.c: 82: uart_print(ph);
	movlw	(_ph)&0ffh
	fcall	_uart_print
	line	83
;message.c: 83: _delay((unsigned long)((3000)*(20000000/4000.0)));
	opt asmopt_off
movlw  76
movwf	((??_pir_sensor+0)+0+2),f
movlw	206
movwf	((??_pir_sensor+0)+0+1),f
	movlw	129
movwf	((??_pir_sensor+0)+0),f
u2247:
	decfsz	((??_pir_sensor+0)+0),f
	goto	u2247
	decfsz	((??_pir_sensor+0)+0+1),f
	goto	u2247
	decfsz	((??_pir_sensor+0)+0+2),f
	goto	u2247
	clrwdt
opt asmopt_on

	line	85
	
l1983:	
;message.c: 85: uart_print(mode_text);
	movlw	(_mode_text)&0ffh
	fcall	_uart_print
	line	86
	
l1985:	
;message.c: 86: _delay((unsigned long)((100)*(20000000/4000.0)));
	opt asmopt_off
movlw  3
movwf	((??_pir_sensor+0)+0+2),f
movlw	136
movwf	((??_pir_sensor+0)+0+1),f
	movlw	86
movwf	((??_pir_sensor+0)+0),f
u2257:
	decfsz	((??_pir_sensor+0)+0),f
	goto	u2257
	decfsz	((??_pir_sensor+0)+0+1),f
	goto	u2257
	decfsz	((??_pir_sensor+0)+0+2),f
	goto	u2257
opt asmopt_on

	line	88
;message.c: 88: uart_print(char_mode);
	movlw	(_char_mode)&0ffh
	fcall	_uart_print
	line	89
	
l1987:	
;message.c: 89: _delay((unsigned long)((100)*(20000000/4000.0)));
	opt asmopt_off
movlw  3
movwf	((??_pir_sensor+0)+0+2),f
movlw	136
movwf	((??_pir_sensor+0)+0+1),f
	movlw	86
movwf	((??_pir_sensor+0)+0),f
u2267:
	decfsz	((??_pir_sensor+0)+0),f
	goto	u2267
	decfsz	((??_pir_sensor+0)+0+1),f
	goto	u2267
	decfsz	((??_pir_sensor+0)+0+2),f
	goto	u2267
opt asmopt_on

	line	91
	
l1989:	
;message.c: 91: uart_print(param);
	movlw	(_param)&0ffh
	fcall	_uart_print
	line	92
;message.c: 92: _delay((unsigned long)((100)*(20000000/4000.0)));
	opt asmopt_off
movlw  3
movwf	((??_pir_sensor+0)+0+2),f
movlw	136
movwf	((??_pir_sensor+0)+0+1),f
	movlw	86
movwf	((??_pir_sensor+0)+0),f
u2277:
	decfsz	((??_pir_sensor+0)+0),f
	goto	u2277
	decfsz	((??_pir_sensor+0)+0+1),f
	goto	u2277
	decfsz	((??_pir_sensor+0)+0+2),f
	goto	u2277
opt asmopt_on

	line	94
	
l1991:	
;message.c: 94: uart_print(mobile_no);
	movlw	(_mobile_no)&0ffh
	fcall	_uart_print
	line	95
	
l1993:	
;message.c: 95: _delay((unsigned long)((100)*(20000000/4000.0)));
	opt asmopt_off
movlw  3
movwf	((??_pir_sensor+0)+0+2),f
movlw	136
movwf	((??_pir_sensor+0)+0+1),f
	movlw	86
movwf	((??_pir_sensor+0)+0),f
u2287:
	decfsz	((??_pir_sensor+0)+0),f
	goto	u2287
	decfsz	((??_pir_sensor+0)+0+1),f
	goto	u2287
	decfsz	((??_pir_sensor+0)+0+2),f
	goto	u2287
opt asmopt_on

	line	97
;message.c: 97: uart_print(mesg);
	movlw	(_mesg)&0ffh
	fcall	_uart_print
	line	98
	
l1995:	
;message.c: 98: Uart_tx(0x1a);
	movlw	(01Ah)
	fcall	_Uart_tx
	line	99
	
l1997:	
;message.c: 99: _delay((unsigned long)((1000)*(20000000/4000.0)));
	opt asmopt_off
movlw  26
movwf	((??_pir_sensor+0)+0+2),f
movlw	69
movwf	((??_pir_sensor+0)+0+1),f
	movlw	126
movwf	((??_pir_sensor+0)+0),f
u2297:
	decfsz	((??_pir_sensor+0)+0),f
	goto	u2297
	decfsz	((??_pir_sensor+0)+0+1),f
	goto	u2297
	decfsz	((??_pir_sensor+0)+0+2),f
	goto	u2297
opt asmopt_on

	line	101
;message.c: 100: }
;message.c: 101: }
	goto	l740
	line	102
	
l737:	
	line	104
	
l1999:	
;message.c: 102: else
;message.c: 103: {
;message.c: 104: LED();
	fcall	_LED
	line	105
	
l2001:	
;message.c: 105: uart_print(nomesg);
	movlw	(_nomesg)&0ffh
	fcall	_uart_print
	line	106
	
l2003:	
;message.c: 106: Uart_tx(0x1a);
	movlw	(01Ah)
	fcall	_Uart_tx
	line	107
	
l2005:	
;message.c: 107: _delay((unsigned long)((1000)*(20000000/4000.0)));
	opt asmopt_off
movlw  26
movwf	((??_pir_sensor+0)+0+2),f
movlw	69
movwf	((??_pir_sensor+0)+0+1),f
	movlw	126
movwf	((??_pir_sensor+0)+0),f
u2307:
	decfsz	((??_pir_sensor+0)+0),f
	goto	u2307
	decfsz	((??_pir_sensor+0)+0+1),f
	goto	u2307
	decfsz	((??_pir_sensor+0)+0+2),f
	goto	u2307
opt asmopt_on

	goto	l740
	line	108
	
l739:	
	line	110
	
l740:	
	return
	opt stack 0
GLOBAL	__end_of_pir_sensor
	__end_of_pir_sensor:
;; =============== function _pir_sensor ends ============

	signat	_pir_sensor,88
	global	_uart_print
psect	text164,local,class=CODE,delta=2
global __ptext164
__ptext164:

;; *************** function _uart_print *****************
;; Defined at:
;;		line 52 in file "C:\Users\r_m_a\Desktop\UART TO GSM\sam29-7-2022\message.c"
;; Parameters:    Size  Location     Type
;;  str             1    wreg     PTR unsigned char 
;;		 -> nomesg(19), mesg(15), mobile_no(23), param(21), 
;;		 -> char_mode(16), mode_text(12), ph(17), AT(5), 
;; Auto vars:     Size  Location     Type
;;  str             1    2[COMMON] PTR unsigned char 
;;		 -> nomesg(19), mesg(15), mobile_no(23), param(21), 
;;		 -> char_mode(16), mode_text(12), ph(17), AT(5), 
;; Return value:  Size  Location     Type
;;		None               void
;; Registers used:
;;		wreg, fsr0l, fsr0h, status,2, status,0, pclath, cstack
;; Tracked objects:
;;		On entry : 0/0
;;		On exit  : 0/0
;;		Unchanged: 0/0
;; Data sizes:     COMMON   BANK0   BANK1   BANK3   BANK2
;;      Params:         0       0       0       0       0
;;      Locals:         1       0       0       0       0
;;      Temps:          1       0       0       0       0
;;      Totals:         2       0       0       0       0
;;Total ram usage:        2 bytes
;; Hardware stack levels used:    1
;; Hardware stack levels required when called:    1
;; This function calls:
;;		_Uart_tx
;; This function is called by:
;;		_pir_sensor
;; This function uses a non-reentrant model
;;
psect	text164
	file	"C:\Users\r_m_a\Desktop\UART TO GSM\sam29-7-2022\message.c"
	line	52
	global	__size_of_uart_print
	__size_of_uart_print	equ	__end_of_uart_print-_uart_print
	
_uart_print:	
	opt	stack 5
; Regs used in _uart_print: [wreg-fsr0h+status,2+status,0+pclath+cstack]
;uart_print@str stored from wreg
	movwf	(uart_print@str)
	line	53
	
l1961:	
;message.c: 53: while(*str)
	goto	l1967
	
l729:	
	line	55
	
l1963:	
;message.c: 54: {
;message.c: 55: Uart_tx(*str++);
	movf	(uart_print@str),w
	movwf	fsr0
	bcf	status, 7	;select IRP bank0
	movf	indf,w
	fcall	_Uart_tx
	
l1965:	
	movlw	(01h)
	movwf	(??_uart_print+0)+0
	movf	(??_uart_print+0)+0,w
	addwf	(uart_print@str),f
	goto	l1967
	line	56
	
l728:	
	line	53
	
l1967:	
	movf	(uart_print@str),w
	movwf	fsr0
	bcf	status, 7	;select IRP bank0
	movf	indf,f
	skipz
	goto	u2211
	goto	u2210
u2211:
	goto	l1963
u2210:
	goto	l731
	
l730:	
	line	57
	
l731:	
	return
	opt stack 0
GLOBAL	__end_of_uart_print
	__end_of_uart_print:
;; =============== function _uart_print ends ============

	signat	_uart_print,4216
	global	_uart_init
psect	text165,local,class=CODE,delta=2
global __ptext165
__ptext165:

;; *************** function _uart_init *****************
;; Defined at:
;;		line 59 in file "C:\Users\r_m_a\Desktop\UART TO GSM\sam29-7-2022\message.c"
;; Parameters:    Size  Location     Type
;;		None
;; Auto vars:     Size  Location     Type
;;		None
;; Return value:  Size  Location     Type
;;                  1    wreg      unsigned char 
;; Registers used:
;;		wreg
;; Tracked objects:
;;		On entry : 0/0
;;		On exit  : 0/0
;;		Unchanged: 0/0
;; Data sizes:     COMMON   BANK0   BANK1   BANK3   BANK2
;;      Params:         0       0       0       0       0
;;      Locals:         0       0       0       0       0
;;      Temps:          0       0       0       0       0
;;      Totals:         0       0       0       0       0
;;Total ram usage:        0 bytes
;; Hardware stack levels used:    1
;; This function calls:
;;		Nothing
;; This function is called by:
;;		_main
;; This function uses a non-reentrant model
;;
psect	text165
	file	"C:\Users\r_m_a\Desktop\UART TO GSM\sam29-7-2022\message.c"
	line	59
	global	__size_of_uart_init
	__size_of_uart_init	equ	__end_of_uart_init-_uart_init
	
_uart_init:	
	opt	stack 7
; Regs used in _uart_init: [wreg]
	line	60
	
l1131:	
;message.c: 60: TRISD1 = 1;
	bsf	status, 5	;RP0=1, select bank1
	bcf	status, 6	;RP1=0, select bank1
	bsf	(1089/8)^080h,(1089)&7
	line	61
;message.c: 61: TRISD0 = 0;
	bcf	(1088/8)^080h,(1088)&7
	line	62
;message.c: 62: TRISC6 = 0;
	bcf	(1086/8)^080h,(1086)&7
	line	63
;message.c: 63: TRISC7 = 1;
	bsf	(1087/8)^080h,(1087)&7
	line	64
	
l1133:	
;message.c: 64: TXSTA = 0X20;
	movlw	(020h)
	movwf	(152)^080h	;volatile
	line	65
;message.c: 65: RCSTA = 0X90;
	movlw	(090h)
	bcf	status, 5	;RP0=0, select bank0
	bcf	status, 6	;RP1=0, select bank0
	movwf	(24)	;volatile
	line	66
;message.c: 66: SPBRG=31;
	movlw	(01Fh)
	bsf	status, 5	;RP0=1, select bank1
	bcf	status, 6	;RP1=0, select bank1
	movwf	(153)^080h	;volatile
	line	67
	
l1135:	
;message.c: 67: TXIF = 0;
	bcf	status, 5	;RP0=0, select bank0
	bcf	status, 6	;RP1=0, select bank0
	bcf	(100/8),(100)&7
	line	68
	
l1137:	
;message.c: 68: RCIF = 0;
	bcf	(101/8),(101)&7
	line	69
	
l734:	
	return
	opt stack 0
GLOBAL	__end_of_uart_init
	__end_of_uart_init:
;; =============== function _uart_init ends ============

	signat	_uart_init,89
	global	_LED
psect	text166,local,class=CODE,delta=2
global __ptext166
__ptext166:

;; *************** function _LED *****************
;; Defined at:
;;		line 40 in file "C:\Users\r_m_a\Desktop\UART TO GSM\sam29-7-2022\message.c"
;; Parameters:    Size  Location     Type
;;		None
;; Auto vars:     Size  Location     Type
;;		None
;; Return value:  Size  Location     Type
;;		None               void
;; Registers used:
;;		None
;; Tracked objects:
;;		On entry : 0/0
;;		On exit  : 0/0
;;		Unchanged: 0/0
;; Data sizes:     COMMON   BANK0   BANK1   BANK3   BANK2
;;      Params:         0       0       0       0       0
;;      Locals:         0       0       0       0       0
;;      Temps:          0       0       0       0       0
;;      Totals:         0       0       0       0       0
;;Total ram usage:        0 bytes
;; Hardware stack levels used:    1
;; This function calls:
;;		Nothing
;; This function is called by:
;;		_pir_sensor
;; This function uses a non-reentrant model
;;
psect	text166
	file	"C:\Users\r_m_a\Desktop\UART TO GSM\sam29-7-2022\message.c"
	line	40
	global	__size_of_LED
	__size_of_LED	equ	__end_of_LED-_LED
	
_LED:	
	opt	stack 6
; Regs used in _LED: []
	line	41
	
l1957:	
;message.c: 41: if(RD1==1)
	bcf	status, 5	;RP0=0, select bank0
	bcf	status, 6	;RP1=0, select bank0
	btfss	(65/8),(65)&7
	goto	u2201
	goto	u2200
u2201:
	goto	l723
u2200:
	line	43
	
l1959:	
;message.c: 42: {
;message.c: 43: RD0 = 1;
	bsf	(64/8),(64)&7
	line	44
;message.c: 44: }
	goto	l725
	line	45
	
l723:	
	line	47
;message.c: 45: else
;message.c: 46: {
;message.c: 47: RD0 = 0;
	bcf	(64/8),(64)&7
	goto	l725
	line	48
	
l724:	
	line	49
	
l725:	
	return
	opt stack 0
GLOBAL	__end_of_LED
	__end_of_LED:
;; =============== function _LED ends ============

	signat	_LED,88
	global	_Uart_tx
psect	text167,local,class=CODE,delta=2
global __ptext167
__ptext167:

;; *************** function _Uart_tx *****************
;; Defined at:
;;		line 26 in file "C:\Users\r_m_a\Desktop\UART TO GSM\sam29-7-2022\message.c"
;; Parameters:    Size  Location     Type
;;  data            1    wreg     unsigned char 
;; Auto vars:     Size  Location     Type
;;  data            1    0[COMMON] unsigned char 
;; Return value:  Size  Location     Type
;;		None               void
;; Registers used:
;;		wreg
;; Tracked objects:
;;		On entry : 0/0
;;		On exit  : 0/0
;;		Unchanged: 0/0
;; Data sizes:     COMMON   BANK0   BANK1   BANK3   BANK2
;;      Params:         0       0       0       0       0
;;      Locals:         1       0       0       0       0
;;      Temps:          0       0       0       0       0
;;      Totals:         1       0       0       0       0
;;Total ram usage:        1 bytes
;; Hardware stack levels used:    1
;; This function calls:
;;		Nothing
;; This function is called by:
;;		_uart_print
;;		_pir_sensor
;; This function uses a non-reentrant model
;;
psect	text167
	file	"C:\Users\r_m_a\Desktop\UART TO GSM\sam29-7-2022\message.c"
	line	26
	global	__size_of_Uart_tx
	__size_of_Uart_tx	equ	__end_of_Uart_tx-_Uart_tx
	
_Uart_tx:	
	opt	stack 6
; Regs used in _Uart_tx: [wreg]
;Uart_tx@data stored from wreg
	movwf	(Uart_tx@data)
	line	27
	
l1955:	
;message.c: 27: TXREG=data;
	movf	(Uart_tx@data),w
	bcf	status, 5	;RP0=0, select bank0
	bcf	status, 6	;RP1=0, select bank0
	movwf	(25)	;volatile
	line	28
;message.c: 28: while(!TXIF);
	goto	l711
	
l712:	
	
l711:	
	btfss	(100/8),(100)&7
	goto	u2191
	goto	u2190
u2191:
	goto	l711
u2190:
	
l713:	
	line	29
;message.c: 29: TXIF = 0;
	bcf	(100/8),(100)&7
	line	30
	
l714:	
	return
	opt stack 0
GLOBAL	__end_of_Uart_tx
	__end_of_Uart_tx:
;; =============== function _Uart_tx ends ============

	signat	_Uart_tx,4216
psect	text168,local,class=CODE,delta=2
global __ptext168
__ptext168:
	global	btemp
	btemp set 07Eh

	DABS	1,126,2	;btemp
	global	wtemp0
	wtemp0 set btemp
	end
