opt subtitle "HI-TECH Software Omniscient Code Generator (Lite mode) build 7503"

opt pagewidth 120

	opt lm

	processor	16F877A
clrc	macro
	bcf	3,0
	endm
clrz	macro
	bcf	3,2
	endm
setc	macro
	bsf	3,0
	endm
setz	macro
	bsf	3,2
	endm
skipc	macro
	btfss	3,0
	endm
skipz	macro
	btfss	3,2
	endm
skipnc	macro
	btfsc	3,0
	endm
skipnz	macro
	btfsc	3,2
	endm
indf	equ	0
indf0	equ	0
pc	equ	2
pcl	equ	2
status	equ	3
fsr	equ	4
fsr0	equ	4
c	equ	1
z	equ	0
pclath	equ	10
# 3 "C:\Users\r_m_a\Desktop\UART TO GSM\project\project.c"
	psect config,class=CONFIG,delta=2 ;#
# 3 "C:\Users\r_m_a\Desktop\UART TO GSM\project\project.c"
	dw 0x1f7a ;#
	FNCALL	_main,_lcd_init
	FNCALL	_main,_uart_init
	FNCALL	_main,_sensor
	FNCALL	_sensor,_led
	FNCALL	_sensor,_uart_print
	FNCALL	_sensor,_lcd_cmd
	FNCALL	_sensor,_lcd_print
	FNCALL	_sensor,_uart_tx
	FNCALL	_lcd_print,_lcd_data
	FNCALL	_lcd_init,_lcd_cmd
	FNCALL	_uart_print,_uart_tx
	FNROOT	_main
	global	_send_message
	global	_set_sms
	global	_mobile_no
	global	_no_message
	global	_phone
	global	_AT
psect	idataBANK0,class=CODE,space=0,delta=2
global __pidataBANK0
__pidataBANK0:
	file	"C:\Users\r_m_a\Desktop\UART TO GSM\project\project.c"
	line	14

;initializer for _send_message
	retlw	048h
	retlw	075h
	retlw	06Dh
	retlw	061h
	retlw	06Eh
	retlw	020h
	retlw	044h
	retlw	065h
	retlw	074h
	retlw	065h
	retlw	063h
	retlw	074h
	retlw	065h
	retlw	064h
	retlw	0Dh
	retlw	0Ah
	retlw	0
	line	13

;initializer for _set_sms
	retlw	041h
	retlw	054h
	retlw	02Bh
	retlw	043h
	retlw	04Dh
	retlw	047h
	retlw	046h
	retlw	03Dh
	retlw	031h
	retlw	0Dh
	retlw	0Ah
	retlw	0
psect	idataBANK1,class=CODE,space=0,delta=2
global __pidataBANK1
__pidataBANK1:
	line	15

;initializer for _mobile_no
	retlw	041h
	retlw	054h
	retlw	02Bh
	retlw	043h
	retlw	04Dh
	retlw	047h
	retlw	053h
	retlw	03Dh
	retlw	04Ch
	retlw	038h
	retlw	037h
	retlw	038h
	retlw	035h
	retlw	035h
	retlw	034h
	retlw	035h
	retlw	030h
	retlw	0Dh
	retlw	0Ah
	retlw	0
psect	idataBANK0
	line	16

;initializer for _no_message
	retlw	048h
	retlw	075h
	retlw	06Dh
	retlw	061h
	retlw	06Eh
	retlw	020h
	retlw	04Eh
	retlw	06Fh
	retlw	074h
	retlw	020h
	retlw	044h
	retlw	065h
	retlw	074h
	retlw	065h
	retlw	063h
	retlw	074h
	retlw	065h
	retlw	064h
	retlw	0
	line	12

;initializer for _phone
	retlw	041h
	retlw	054h
	retlw	044h
	retlw	039h
	retlw	034h
	retlw	038h
	retlw	037h
	retlw	038h
	retlw	035h
	retlw	035h
	retlw	034h
	retlw	035h
	retlw	030h
	retlw	03Bh
	retlw	0Dh
	retlw	0Ah
	retlw	0
	line	11

;initializer for _AT
	retlw	041h
	retlw	054h
	retlw	0Dh
	retlw	0Ah
	retlw	0
	global	_PORTB
_PORTB	set	6
	global	_RCREG
_RCREG	set	26
	global	_RCSTA
_RCSTA	set	24
	global	_TXREG
_TXREG	set	25
	global	_RC0
_RC0	set	56
	global	_RC1
_RC1	set	57
	global	_RC2
_RC2	set	58
	global	_RCIF
_RCIF	set	101
	global	_RD0
_RD0	set	64
	global	_RD1
_RD1	set	65
	global	_TXIF
_TXIF	set	100
	global	_SPBRG
_SPBRG	set	153
	global	_TRISB
_TRISB	set	134
	global	_TXSTA
_TXSTA	set	152
	global	_TRISC0
_TRISC0	set	1080
	global	_TRISC1
_TRISC1	set	1081
	global	_TRISC2
_TRISC2	set	1082
	global	_TRISC6
_TRISC6	set	1086
	global	_TRISC7
_TRISC7	set	1087
	global	_TRISD0
_TRISD0	set	1088
	global	_TRISD1
_TRISD1	set	1089
psect	strings,class=STRING,delta=2
global __pstrings
__pstrings:
;	global	stringdir,stringtab,__stringbase
stringtab:
;	String table - string pointers are 1 byte each
stringcode:stringdir:
movlw high(stringdir)
movwf pclath
movf fsr,w
incf fsr
	addwf pc
__stringbase:
	retlw	0
psect	strings
	
STR_3:	
	retlw	32	;' '
	retlw	32	;' '
	retlw	32	;' '
	retlw	57	;'9'
	retlw	52	;'4'
	retlw	56	;'8'
	retlw	55	;'7'
	retlw	56	;'8'
	retlw	53	;'5'
	retlw	53	;'5'
	retlw	52	;'4'
	retlw	53	;'5'
	retlw	48	;'0'
	retlw	32	;' '
	retlw	32	;' '
	retlw	32	;' '
	retlw	0
psect	strings
	
STR_2:	
	retlw	67	;'C'
	retlw	97	;'a'
	retlw	108	;'l'
	retlw	108	;'l'
	retlw	105	;'i'
	retlw	110	;'n'
	retlw	103	;'g'
	retlw	32	;' '
	retlw	32	;' '
	retlw	32	;' '
	retlw	78	;'N'
	retlw	117	;'u'
	retlw	109	;'m'
	retlw	98	;'b'
	retlw	101	;'e'
	retlw	114	;'r'
	retlw	0
psect	strings
	
STR_1:	
	retlw	65	;'A'
	retlw	110	;'n'
	retlw	105	;'i'
	retlw	109	;'m'
	retlw	97	;'a'
	retlw	108	;'l'
	retlw	32	;' '
	retlw	68	;'D'
	retlw	101	;'e'
	retlw	116	;'t'
	retlw	101	;'e'
	retlw	99	;'c'
	retlw	116	;'t'
	retlw	101	;'e'
	retlw	100	;'d'
	retlw	0
psect	strings
	file	"gsmproject.as"
	line	#
psect cinit,class=CODE,delta=2
global start_initialization
start_initialization:

psect	dataBANK0,class=BANK0,space=1
global __pdataBANK0
__pdataBANK0:
	file	"C:\Users\r_m_a\Desktop\UART TO GSM\project\project.c"
	line	14
_send_message:
       ds      17

psect	dataBANK0
	file	"C:\Users\r_m_a\Desktop\UART TO GSM\project\project.c"
	line	13
_set_sms:
       ds      12

psect	dataBANK0
	file	"C:\Users\r_m_a\Desktop\UART TO GSM\project\project.c"
	line	16
_no_message:
       ds      19

psect	dataBANK0
	file	"C:\Users\r_m_a\Desktop\UART TO GSM\project\project.c"
	line	12
_phone:
       ds      17

psect	dataBANK0
	file	"C:\Users\r_m_a\Desktop\UART TO GSM\project\project.c"
	line	11
_AT:
       ds      5

psect	dataBANK1,class=BANK1,space=1
global __pdataBANK1
__pdataBANK1:
	file	"C:\Users\r_m_a\Desktop\UART TO GSM\project\project.c"
	line	15
_mobile_no:
       ds      20

global btemp
psect inittext,class=CODE,delta=2
global init_fetch,btemp
;	Called with low address in FSR and high address in W
init_fetch:
	movf btemp,w
	movwf pclath
	movf btemp+1,w
	movwf pc
global init_ram
;Called with:
;	high address of idata address in btemp 
;	low address of idata address in btemp+1 
;	low address of data in FSR
;	high address + 1 of data in btemp-1
init_ram:
	fcall init_fetch
	movwf indf,f
	incf fsr,f
	movf fsr,w
	xorwf btemp-1,w
	btfsc status,2
	retlw 0
	incf btemp+1,f
	btfsc status,2
	incf btemp,f
	goto init_ram
; Initialize objects allocated to BANK1
psect cinit,class=CODE,delta=2
global init_ram, __pidataBANK1
	bcf	status, 7	;select IRP bank0
	movlw low(__pdataBANK1+20)
	movwf btemp-1,f
	movlw high(__pidataBANK1)
	movwf btemp,f
	movlw low(__pidataBANK1)
	movwf btemp+1,f
	movlw low(__pdataBANK1)
	movwf fsr,f
	fcall init_ram
; Initialize objects allocated to BANK0
psect cinit,class=CODE,delta=2
global init_ram, __pidataBANK0
	movlw low(__pdataBANK0+70)
	movwf btemp-1,f
	movlw high(__pidataBANK0)
	movwf btemp,f
	movlw low(__pidataBANK0)
	movwf btemp+1,f
	movlw low(__pdataBANK0)
	movwf fsr,f
	fcall init_ram
psect cinit,class=CODE,delta=2
global end_of_initialization

;End of C runtime variable initialization code

end_of_initialization:
clrf status
ljmp _main	;jump to C main() function
psect	cstackCOMMON,class=COMMON,space=1
global __pcstackCOMMON
__pcstackCOMMON:
	global	?_uart_tx
?_uart_tx:	; 0 bytes @ 0x0
	global	??_uart_tx
??_uart_tx:	; 0 bytes @ 0x0
	global	?_uart_print
?_uart_print:	; 0 bytes @ 0x0
	global	?_led
?_led:	; 0 bytes @ 0x0
	global	??_led
??_led:	; 0 bytes @ 0x0
	global	?_uart_init
?_uart_init:	; 0 bytes @ 0x0
	global	??_uart_init
??_uart_init:	; 0 bytes @ 0x0
	global	?_lcd_cmd
?_lcd_cmd:	; 0 bytes @ 0x0
	global	??_lcd_cmd
??_lcd_cmd:	; 0 bytes @ 0x0
	global	?_lcd_data
?_lcd_data:	; 0 bytes @ 0x0
	global	??_lcd_data
??_lcd_data:	; 0 bytes @ 0x0
	global	?_lcd_init
?_lcd_init:	; 0 bytes @ 0x0
	global	?_lcd_print
?_lcd_print:	; 0 bytes @ 0x0
	global	?_sensor
?_sensor:	; 0 bytes @ 0x0
	global	?_main
?_main:	; 2 bytes @ 0x0
	global	uart_tx@data
uart_tx@data:	; 1 bytes @ 0x0
	ds	1
	global	??_uart_print
??_uart_print:	; 0 bytes @ 0x1
	ds	1
	global	uart_print@s
uart_print@s:	; 1 bytes @ 0x2
	global	lcd_cmd@cmd
lcd_cmd@cmd:	; 1 bytes @ 0x2
	global	lcd_data@data
lcd_data@data:	; 1 bytes @ 0x2
	ds	1
	global	??_lcd_init
??_lcd_init:	; 0 bytes @ 0x3
	global	??_lcd_print
??_lcd_print:	; 0 bytes @ 0x3
	ds	3
	global	lcd_print@str
lcd_print@str:	; 1 bytes @ 0x6
	ds	1
	global	??_sensor
??_sensor:	; 0 bytes @ 0x7
	ds	3
	global	sensor@k
sensor@k:	; 2 bytes @ 0xA
	ds	2
	global	??_main
??_main:	; 0 bytes @ 0xC
;;Data sizes: Strings 50, constant 0, data 90, bss 0, persistent 0 stack 0
;;Auto spaces:   Size  Autos    Used
;; COMMON          14     12      12
;; BANK0           80      0      70
;; BANK1           80      0      20
;; BANK3           96      0       0
;; BANK2           96      0       0

;;
;; Pointer list with targets:

;; lcd_print@str	PTR unsigned char  size(1) Largest target is 17
;;		 -> STR_3(CODE[17]), STR_2(CODE[17]), STR_1(CODE[16]), 
;;
;; uart_print@s	PTR unsigned char  size(1) Largest target is 19
;;		 -> no_message(BANK0[19]), phone(BANK0[17]), AT(BANK0[5]), 
;;


;;
;; Critical Paths under _main in COMMON
;;
;;   _main->_sensor
;;   _sensor->_lcd_print
;;   _lcd_print->_lcd_data
;;   _lcd_init->_lcd_cmd
;;   _uart_print->_uart_tx
;;
;; Critical Paths under _main in BANK0
;;
;;   None.
;;
;; Critical Paths under _main in BANK1
;;
;;   None.
;;
;; Critical Paths under _main in BANK3
;;
;;   None.
;;
;; Critical Paths under _main in BANK2
;;
;;   None.

;;
;;Main: autosize = 0, tempsize = 0, incstack = 0, save=0
;;

;;
;;Call Graph Tables:
;;
;; ---------------------------------------------------------------------------------
;; (Depth) Function   	        Calls       Base Space   Used Autos Params    Refs
;; ---------------------------------------------------------------------------------
;; (0) _main                                                 0     0      0     223
;;                           _lcd_init
;;                          _uart_init
;;                             _sensor
;; ---------------------------------------------------------------------------------
;; (1) _sensor                                               9     9      0     201
;;                                              7 COMMON     5     5      0
;;                                _led
;;                         _uart_print
;;                            _lcd_cmd
;;                          _lcd_print
;;                            _uart_tx
;; ---------------------------------------------------------------------------------
;; (2) _lcd_print                                            4     4      0      67
;;                                              3 COMMON     4     4      0
;;                           _lcd_data
;; ---------------------------------------------------------------------------------
;; (1) _lcd_init                                             0     0      0      22
;;                            _lcd_cmd
;; ---------------------------------------------------------------------------------
;; (3) _lcd_data                                             3     3      0      22
;;                                              0 COMMON     3     3      0
;; ---------------------------------------------------------------------------------
;; (2) _lcd_cmd                                              3     3      0      22
;;                                              0 COMMON     3     3      0
;; ---------------------------------------------------------------------------------
;; (2) _uart_print                                           2     2      0      67
;;                                              1 COMMON     2     2      0
;;                            _uart_tx
;; ---------------------------------------------------------------------------------
;; (1) _uart_init                                            0     0      0       0
;; ---------------------------------------------------------------------------------
;; (2) _led                                                  0     0      0       0
;; ---------------------------------------------------------------------------------
;; (2) _uart_tx                                              1     1      0      22
;;                                              0 COMMON     1     1      0
;; ---------------------------------------------------------------------------------
;; Estimated maximum stack depth 3
;; ---------------------------------------------------------------------------------

;; Call Graph Graphs:

;; _main (ROOT)
;;   _lcd_init
;;     _lcd_cmd
;;   _uart_init
;;   _sensor
;;     _led
;;     _uart_print
;;       _uart_tx
;;     _lcd_cmd
;;     _lcd_print
;;       _lcd_data
;;     _uart_tx
;;

;; Address spaces:

;;Name               Size   Autos  Total    Cost      Usage
;;BANK3               60      0       0       9        0.0%
;;BITBANK3            60      0       0       8        0.0%
;;SFR3                 0      0       0       4        0.0%
;;BITSFR3              0      0       0       4        0.0%
;;BANK2               60      0       0      11        0.0%
;;BITBANK2            60      0       0      10        0.0%
;;SFR2                 0      0       0       5        0.0%
;;BITSFR2              0      0       0       5        0.0%
;;SFR1                 0      0       0       2        0.0%
;;BITSFR1              0      0       0       2        0.0%
;;BANK1               50      0      14       7       25.0%
;;BITBANK1            50      0       0       6        0.0%
;;CODE                 0      0       0       0        0.0%
;;DATA                 0      0      69      12        0.0%
;;ABS                  0      0      66       3        0.0%
;;NULL                 0      0       0       0        0.0%
;;STACK                0      0       3       2        0.0%
;;BANK0               50      0      46       5       87.5%
;;BITBANK0            50      0       0       4        0.0%
;;SFR0                 0      0       0       1        0.0%
;;BITSFR0              0      0       0       1        0.0%
;;COMMON               E      C       C       1       85.7%
;;BITCOMMON            E      0       0       0        0.0%
;;EEDATA             100      0       0       0        0.0%

	global	_main
psect	maintext,global,class=CODE,delta=2
global __pmaintext
__pmaintext:

;; *************** function _main *****************
;; Defined at:
;;		line 156 in file "C:\Users\r_m_a\Desktop\UART TO GSM\project\project.c"
;; Parameters:    Size  Location     Type
;;		None
;; Auto vars:     Size  Location     Type
;;		None
;; Return value:  Size  Location     Type
;;                  2  745[COMMON] int 
;; Registers used:
;;		wreg, fsr0l, fsr0h, status,2, status,0, pclath, cstack
;; Tracked objects:
;;		On entry : 17F/0
;;		On exit  : 0/0
;;		Unchanged: 0/0
;; Data sizes:     COMMON   BANK0   BANK1   BANK3   BANK2
;;      Params:         0       0       0       0       0
;;      Locals:         0       0       0       0       0
;;      Temps:          0       0       0       0       0
;;      Totals:         0       0       0       0       0
;;Total ram usage:        0 bytes
;; Hardware stack levels required when called:    3
;; This function calls:
;;		_lcd_init
;;		_uart_init
;;		_sensor
;; This function is called by:
;;		Startup code after reset
;; This function uses a non-reentrant model
;;
psect	maintext
	file	"C:\Users\r_m_a\Desktop\UART TO GSM\project\project.c"
	line	156
	global	__size_of_main
	__size_of_main	equ	__end_of_main-_main
	
_main:	
	opt	stack 5
; Regs used in _main: [wreg-fsr0h+status,2+status,0+pclath+cstack]
	line	157
	
l2138:	
;project.c: 157: lcd_init();
	fcall	_lcd_init
	line	158
;project.c: 158: uart_init();
	fcall	_uart_init
	goto	l2140
	line	160
;project.c: 160: while(1)
	
l746:	
	line	162
	
l2140:	
;project.c: 161: {
;project.c: 162: sensor();
	fcall	_sensor
	goto	l2140
	line	163
	
l747:	
	line	160
	goto	l2140
	
l748:	
	line	164
	
l749:	
	global	start
	ljmp	start
	opt stack 0
GLOBAL	__end_of_main
	__end_of_main:
;; =============== function _main ends ============

	signat	_main,90
	global	_sensor
psect	text247,local,class=CODE,delta=2
global __ptext247
__ptext247:

;; *************** function _sensor *****************
;; Defined at:
;;		line 111 in file "C:\Users\r_m_a\Desktop\UART TO GSM\project\project.c"
;; Parameters:    Size  Location     Type
;;		None
;; Auto vars:     Size  Location     Type
;;  k               2   10[COMMON] int 
;;  j               2    0        int 
;;  i               2    0        int 
;; Return value:  Size  Location     Type
;;		None               void
;; Registers used:
;;		wreg, fsr0l, fsr0h, status,2, status,0, pclath, cstack
;; Tracked objects:
;;		On entry : 0/0
;;		On exit  : 0/0
;;		Unchanged: 0/0
;; Data sizes:     COMMON   BANK0   BANK1   BANK3   BANK2
;;      Params:         0       0       0       0       0
;;      Locals:         2       0       0       0       0
;;      Temps:          3       0       0       0       0
;;      Totals:         5       0       0       0       0
;;Total ram usage:        5 bytes
;; Hardware stack levels used:    1
;; Hardware stack levels required when called:    2
;; This function calls:
;;		_led
;;		_uart_print
;;		_lcd_cmd
;;		_lcd_print
;;		_uart_tx
;; This function is called by:
;;		_main
;; This function uses a non-reentrant model
;;
psect	text247
	file	"C:\Users\r_m_a\Desktop\UART TO GSM\project\project.c"
	line	111
	global	__size_of_sensor
	__size_of_sensor	equ	__end_of_sensor-_sensor
	
_sensor:	
	opt	stack 5
; Regs used in _sensor: [wreg-fsr0h+status,2+status,0+pclath+cstack]
	line	113
	
l2080:	
;project.c: 113: int i,j,k=0;
	clrf	(sensor@k)
	clrf	(sensor@k+1)
	line	114
	
l2082:	
;project.c: 114: if(RD1==1)
	bcf	status, 5	;RP0=0, select bank0
	bcf	status, 6	;RP1=0, select bank0
	btfss	(65/8),(65)&7
	goto	u2251
	goto	u2250
u2251:
	goto	l2130
u2250:
	line	116
	
l2084:	
;project.c: 115: {
;project.c: 116: led();
	fcall	_led
	line	117
	
l2086:	
;project.c: 117: if(k==0)
	movf	((sensor@k+1)),w
	iorwf	((sensor@k)),w
	skipz
	goto	u2261
	goto	u2260
u2261:
	goto	l743
u2260:
	line	119
	
l2088:	
;project.c: 118: {
;project.c: 119: uart_print(AT);
	movlw	(_AT)&0ffh
	fcall	_uart_print
	line	120
	
l2090:	
;project.c: 120: _delay((unsigned long)((100)*(20000000/4000.0)));
	opt asmopt_off
movlw  3
movwf	((??_sensor+0)+0+2),f
movlw	136
movwf	((??_sensor+0)+0+1),f
	movlw	86
movwf	((??_sensor+0)+0),f
u2277:
	decfsz	((??_sensor+0)+0),f
	goto	u2277
	decfsz	((??_sensor+0)+0+1),f
	goto	u2277
	decfsz	((??_sensor+0)+0+2),f
	goto	u2277
opt asmopt_on

	line	122
	
l2092:	
;project.c: 122: uart_print(phone);
	movlw	(_phone)&0ffh
	fcall	_uart_print
	line	124
	
l2094:	
;project.c: 124: lcd_cmd(0x01);
	movlw	(01h)
	fcall	_lcd_cmd
	line	125
	
l2096:	
;project.c: 125: lcd_cmd(0x80);
	movlw	(080h)
	fcall	_lcd_cmd
	line	126
	
l2098:	
;project.c: 126: lcd_print("Animal Detected");
	movlw	((STR_1-__stringbase))&0ffh
	fcall	_lcd_print
	line	127
	
l2100:	
;project.c: 127: _delay((unsigned long)((3000)*(20000000/4000.0)));
	opt asmopt_off
movlw  76
movwf	((??_sensor+0)+0+2),f
movlw	206
movwf	((??_sensor+0)+0+1),f
	movlw	129
movwf	((??_sensor+0)+0),f
u2287:
	decfsz	((??_sensor+0)+0),f
	goto	u2287
	decfsz	((??_sensor+0)+0+1),f
	goto	u2287
	decfsz	((??_sensor+0)+0+2),f
	goto	u2287
	clrwdt
opt asmopt_on

	line	129
	
l2102:	
;project.c: 129: lcd_cmd(0x01);
	movlw	(01h)
	fcall	_lcd_cmd
	line	130
	
l2104:	
;project.c: 130: lcd_cmd(0x80);
	movlw	(080h)
	fcall	_lcd_cmd
	line	131
;project.c: 131: lcd_print("Calling   Number");
	movlw	((STR_2-__stringbase))&0ffh
	fcall	_lcd_print
	line	132
	
l2106:	
;project.c: 132: lcd_cmd(0xc0);
	movlw	(0C0h)
	fcall	_lcd_cmd
	line	133
	
l2108:	
;project.c: 133: lcd_print("   9487855450   ");
	movlw	((STR_3-__stringbase))&0ffh
	fcall	_lcd_print
	line	134
	
l2110:	
;project.c: 134: _delay((unsigned long)((3000)*(20000000/4000.0)));
	opt asmopt_off
movlw  76
movwf	((??_sensor+0)+0+2),f
movlw	206
movwf	((??_sensor+0)+0+1),f
	movlw	129
movwf	((??_sensor+0)+0),f
u2297:
	decfsz	((??_sensor+0)+0),f
	goto	u2297
	decfsz	((??_sensor+0)+0+1),f
	goto	u2297
	decfsz	((??_sensor+0)+0+2),f
	goto	u2297
	clrwdt
opt asmopt_on

	line	135
	
l2112:	
;project.c: 135: _delay((unsigned long)((3000)*(20000000/4000.0)));
	opt asmopt_off
movlw  76
movwf	((??_sensor+0)+0+2),f
movlw	206
movwf	((??_sensor+0)+0+1),f
	movlw	129
movwf	((??_sensor+0)+0),f
u2307:
	decfsz	((??_sensor+0)+0),f
	goto	u2307
	decfsz	((??_sensor+0)+0+1),f
	goto	u2307
	decfsz	((??_sensor+0)+0+2),f
	goto	u2307
	clrwdt
opt asmopt_on

	line	136
	
l2114:	
;project.c: 136: _delay((unsigned long)((3000)*(20000000/4000.0)));
	opt asmopt_off
movlw  76
movwf	((??_sensor+0)+0+2),f
movlw	206
movwf	((??_sensor+0)+0+1),f
	movlw	129
movwf	((??_sensor+0)+0),f
u2317:
	decfsz	((??_sensor+0)+0),f
	goto	u2317
	decfsz	((??_sensor+0)+0+1),f
	goto	u2317
	decfsz	((??_sensor+0)+0+2),f
	goto	u2317
	clrwdt
opt asmopt_on

	line	137
	
l2116:	
;project.c: 137: _delay((unsigned long)((3000)*(20000000/4000.0)));
	opt asmopt_off
movlw  76
movwf	((??_sensor+0)+0+2),f
movlw	206
movwf	((??_sensor+0)+0+1),f
	movlw	129
movwf	((??_sensor+0)+0),f
u2327:
	decfsz	((??_sensor+0)+0),f
	goto	u2327
	decfsz	((??_sensor+0)+0+1),f
	goto	u2327
	decfsz	((??_sensor+0)+0+2),f
	goto	u2327
	clrwdt
opt asmopt_on

	line	138
	
l2118:	
;project.c: 138: _delay((unsigned long)((3000)*(20000000/4000.0)));
	opt asmopt_off
movlw  76
movwf	((??_sensor+0)+0+2),f
movlw	206
movwf	((??_sensor+0)+0+1),f
	movlw	129
movwf	((??_sensor+0)+0),f
u2337:
	decfsz	((??_sensor+0)+0),f
	goto	u2337
	decfsz	((??_sensor+0)+0+1),f
	goto	u2337
	decfsz	((??_sensor+0)+0+2),f
	goto	u2337
	clrwdt
opt asmopt_on

	line	139
	
l2120:	
;project.c: 139: _delay((unsigned long)((3000)*(20000000/4000.0)));
	opt asmopt_off
movlw  76
movwf	((??_sensor+0)+0+2),f
movlw	206
movwf	((??_sensor+0)+0+1),f
	movlw	129
movwf	((??_sensor+0)+0),f
u2347:
	decfsz	((??_sensor+0)+0),f
	goto	u2347
	decfsz	((??_sensor+0)+0+1),f
	goto	u2347
	decfsz	((??_sensor+0)+0+2),f
	goto	u2347
	clrwdt
opt asmopt_on

	line	140
	
l2122:	
;project.c: 140: _delay((unsigned long)((3000)*(20000000/4000.0)));
	opt asmopt_off
movlw  76
movwf	((??_sensor+0)+0+2),f
movlw	206
movwf	((??_sensor+0)+0+1),f
	movlw	129
movwf	((??_sensor+0)+0),f
u2357:
	decfsz	((??_sensor+0)+0),f
	goto	u2357
	decfsz	((??_sensor+0)+0+1),f
	goto	u2357
	decfsz	((??_sensor+0)+0+2),f
	goto	u2357
	clrwdt
opt asmopt_on

	line	141
	
l2124:	
;project.c: 141: _delay((unsigned long)((3000)*(20000000/4000.0)));
	opt asmopt_off
movlw  76
movwf	((??_sensor+0)+0+2),f
movlw	206
movwf	((??_sensor+0)+0+1),f
	movlw	129
movwf	((??_sensor+0)+0),f
u2367:
	decfsz	((??_sensor+0)+0),f
	goto	u2367
	decfsz	((??_sensor+0)+0+1),f
	goto	u2367
	decfsz	((??_sensor+0)+0+2),f
	goto	u2367
	clrwdt
opt asmopt_on

	line	142
	
l2126:	
;project.c: 142: _delay((unsigned long)((3000)*(20000000/4000.0)));
	opt asmopt_off
movlw  76
movwf	((??_sensor+0)+0+2),f
movlw	206
movwf	((??_sensor+0)+0+1),f
	movlw	129
movwf	((??_sensor+0)+0),f
u2377:
	decfsz	((??_sensor+0)+0),f
	goto	u2377
	decfsz	((??_sensor+0)+0+1),f
	goto	u2377
	decfsz	((??_sensor+0)+0+2),f
	goto	u2377
	clrwdt
opt asmopt_on

	line	143
	
l2128:	
;project.c: 143: lcd_cmd(0x01);
	movlw	(01h)
	fcall	_lcd_cmd
	goto	l743
	line	144
	
l741:	
	line	145
;project.c: 144: }
;project.c: 145: }
	goto	l743
	line	146
	
l740:	
	line	148
	
l2130:	
;project.c: 146: else
;project.c: 147: {
;project.c: 148: led();
	fcall	_led
	line	149
	
l2132:	
;project.c: 149: uart_print(no_message);
	movlw	(_no_message)&0ffh
	fcall	_uart_print
	line	150
	
l2134:	
;project.c: 150: uart_tx(0x1a);
	movlw	(01Ah)
	fcall	_uart_tx
	line	151
	
l2136:	
;project.c: 151: _delay((unsigned long)((1000)*(20000000/4000.0)));
	opt asmopt_off
movlw  26
movwf	((??_sensor+0)+0+2),f
movlw	69
movwf	((??_sensor+0)+0+1),f
	movlw	126
movwf	((??_sensor+0)+0),f
u2387:
	decfsz	((??_sensor+0)+0),f
	goto	u2387
	decfsz	((??_sensor+0)+0+1),f
	goto	u2387
	decfsz	((??_sensor+0)+0+2),f
	goto	u2387
opt asmopt_on

	goto	l743
	line	152
	
l742:	
	line	153
	
l743:	
	return
	opt stack 0
GLOBAL	__end_of_sensor
	__end_of_sensor:
;; =============== function _sensor ends ============

	signat	_sensor,88
	global	_lcd_print
psect	text248,local,class=CODE,delta=2
global __ptext248
__ptext248:

;; *************** function _lcd_print *****************
;; Defined at:
;;		line 102 in file "C:\Users\r_m_a\Desktop\UART TO GSM\project\project.c"
;; Parameters:    Size  Location     Type
;;  str             1    wreg     PTR unsigned char 
;;		 -> STR_3(17), STR_2(17), STR_1(16), 
;; Auto vars:     Size  Location     Type
;;  str             1    6[COMMON] PTR unsigned char 
;;		 -> STR_3(17), STR_2(17), STR_1(16), 
;; Return value:  Size  Location     Type
;;		None               void
;; Registers used:
;;		wreg, fsr0l, fsr0h, status,2, status,0, pclath, cstack
;; Tracked objects:
;;		On entry : 0/0
;;		On exit  : 0/0
;;		Unchanged: 0/0
;; Data sizes:     COMMON   BANK0   BANK1   BANK3   BANK2
;;      Params:         0       0       0       0       0
;;      Locals:         1       0       0       0       0
;;      Temps:          3       0       0       0       0
;;      Totals:         4       0       0       0       0
;;Total ram usage:        4 bytes
;; Hardware stack levels used:    1
;; Hardware stack levels required when called:    1
;; This function calls:
;;		_lcd_data
;; This function is called by:
;;		_sensor
;; This function uses a non-reentrant model
;;
psect	text248
	file	"C:\Users\r_m_a\Desktop\UART TO GSM\project\project.c"
	line	102
	global	__size_of_lcd_print
	__size_of_lcd_print	equ	__end_of_lcd_print-_lcd_print
	
_lcd_print:	
	opt	stack 5
; Regs used in _lcd_print: [wreg-fsr0h+status,2+status,0+pclath+cstack]
;lcd_print@str stored from wreg
	movwf	(lcd_print@str)
	line	103
	
l2070:	
;project.c: 103: while(*str)
	goto	l2078
	
l735:	
	line	105
	
l2072:	
;project.c: 104: {
;project.c: 105: lcd_data(*str++);
	movf	(lcd_print@str),w
	movwf	fsr0
	fcall	stringdir
	fcall	_lcd_data
	
l2074:	
	movlw	(01h)
	movwf	(??_lcd_print+0)+0
	movf	(??_lcd_print+0)+0,w
	addwf	(lcd_print@str),f
	line	106
	
l2076:	
;project.c: 106: _delay((unsigned long)((50)*(20000000/4000.0)));
	opt asmopt_off
movlw  2
movwf	((??_lcd_print+0)+0+2),f
movlw	68
movwf	((??_lcd_print+0)+0+1),f
	movlw	169
movwf	((??_lcd_print+0)+0),f
u2397:
	decfsz	((??_lcd_print+0)+0),f
	goto	u2397
	decfsz	((??_lcd_print+0)+0+1),f
	goto	u2397
	decfsz	((??_lcd_print+0)+0+2),f
	goto	u2397
	clrwdt
opt asmopt_on

	goto	l2078
	line	107
	
l734:	
	line	103
	
l2078:	
	movf	(lcd_print@str),w
	movwf	fsr0
	fcall	stringdir
	iorlw	0
	skipz
	goto	u2241
	goto	u2240
u2241:
	goto	l2072
u2240:
	goto	l737
	
l736:	
	line	108
	
l737:	
	return
	opt stack 0
GLOBAL	__end_of_lcd_print
	__end_of_lcd_print:
;; =============== function _lcd_print ends ============

	signat	_lcd_print,4216
	global	_lcd_init
psect	text249,local,class=CODE,delta=2
global __ptext249
__ptext249:

;; *************** function _lcd_init *****************
;; Defined at:
;;		line 86 in file "C:\Users\r_m_a\Desktop\UART TO GSM\project\project.c"
;; Parameters:    Size  Location     Type
;;		None
;; Auto vars:     Size  Location     Type
;;		None
;; Return value:  Size  Location     Type
;;		None               void
;; Registers used:
;;		wreg, status,2, status,0, pclath, cstack
;; Tracked objects:
;;		On entry : 0/0
;;		On exit  : 0/0
;;		Unchanged: 0/0
;; Data sizes:     COMMON   BANK0   BANK1   BANK3   BANK2
;;      Params:         0       0       0       0       0
;;      Locals:         0       0       0       0       0
;;      Temps:          0       0       0       0       0
;;      Totals:         0       0       0       0       0
;;Total ram usage:        0 bytes
;; Hardware stack levels used:    1
;; Hardware stack levels required when called:    1
;; This function calls:
;;		_lcd_cmd
;; This function is called by:
;;		_main
;; This function uses a non-reentrant model
;;
psect	text249
	file	"C:\Users\r_m_a\Desktop\UART TO GSM\project\project.c"
	line	86
	global	__size_of_lcd_init
	__size_of_lcd_init	equ	__end_of_lcd_init-_lcd_init
	
_lcd_init:	
	opt	stack 6
; Regs used in _lcd_init: [wreg+status,2+status,0+pclath+cstack]
	line	87
	
l2048:	
;project.c: 87: TRISB=0;
	bsf	status, 5	;RP0=1, select bank1
	bcf	status, 6	;RP1=0, select bank1
	clrf	(134)^080h	;volatile
	line	88
	
l2050:	
;project.c: 88: TRISC0=0;
	bcf	(1080/8)^080h,(1080)&7
	line	89
	
l2052:	
;project.c: 89: TRISC1=0;
	bcf	(1081/8)^080h,(1081)&7
	line	90
	
l2054:	
;project.c: 90: TRISC2=0;
	bcf	(1082/8)^080h,(1082)&7
	line	91
	
l2056:	
;project.c: 91: lcd_cmd(0x01);
	movlw	(01h)
	fcall	_lcd_cmd
	line	92
	
l2058:	
;project.c: 92: lcd_cmd(0x02);
	movlw	(02h)
	fcall	_lcd_cmd
	line	93
	
l2060:	
;project.c: 93: lcd_cmd(0x38);
	movlw	(038h)
	fcall	_lcd_cmd
	line	94
	
l2062:	
;project.c: 94: lcd_cmd(0x0f);
	movlw	(0Fh)
	fcall	_lcd_cmd
	line	95
	
l2064:	
;project.c: 95: lcd_cmd(0x0c);
	movlw	(0Ch)
	fcall	_lcd_cmd
	line	96
	
l2066:	
;project.c: 96: lcd_cmd(0x06);
	movlw	(06h)
	fcall	_lcd_cmd
	line	97
	
l2068:	
;project.c: 97: lcd_cmd(0x80);
	movlw	(080h)
	fcall	_lcd_cmd
	line	98
	
l731:	
	return
	opt stack 0
GLOBAL	__end_of_lcd_init
	__end_of_lcd_init:
;; =============== function _lcd_init ends ============

	signat	_lcd_init,88
	global	_lcd_data
psect	text250,local,class=CODE,delta=2
global __ptext250
__ptext250:

;; *************** function _lcd_data *****************
;; Defined at:
;;		line 76 in file "C:\Users\r_m_a\Desktop\UART TO GSM\project\project.c"
;; Parameters:    Size  Location     Type
;;  data            1    wreg     unsigned char 
;; Auto vars:     Size  Location     Type
;;  data            1    2[COMMON] unsigned char 
;; Return value:  Size  Location     Type
;;		None               void
;; Registers used:
;;		wreg
;; Tracked objects:
;;		On entry : 0/0
;;		On exit  : 0/0
;;		Unchanged: 0/0
;; Data sizes:     COMMON   BANK0   BANK1   BANK3   BANK2
;;      Params:         0       0       0       0       0
;;      Locals:         1       0       0       0       0
;;      Temps:          2       0       0       0       0
;;      Totals:         3       0       0       0       0
;;Total ram usage:        3 bytes
;; Hardware stack levels used:    1
;; This function calls:
;;		Nothing
;; This function is called by:
;;		_lcd_print
;; This function uses a non-reentrant model
;;
psect	text250
	file	"C:\Users\r_m_a\Desktop\UART TO GSM\project\project.c"
	line	76
	global	__size_of_lcd_data
	__size_of_lcd_data	equ	__end_of_lcd_data-_lcd_data
	
_lcd_data:	
	opt	stack 5
; Regs used in _lcd_data: [wreg]
;lcd_data@data stored from wreg
	movwf	(lcd_data@data)
	line	77
	
l2042:	
;project.c: 77: RC0 = 1;
	bcf	status, 5	;RP0=0, select bank0
	bcf	status, 6	;RP1=0, select bank0
	bsf	(56/8),(56)&7
	line	78
;project.c: 78: RC1 = 0;
	bcf	(57/8),(57)&7
	line	79
;project.c: 79: RC2 = 1;
	bsf	(58/8),(58)&7
	line	80
	
l2044:	
;project.c: 80: PORTB=data;
	movf	(lcd_data@data),w
	movwf	(6)	;volatile
	line	81
;project.c: 81: _delay((unsigned long)((10)*(20000000/4000.0)));
	opt asmopt_off
movlw	65
movwf	((??_lcd_data+0)+0+1),f
	movlw	238
movwf	((??_lcd_data+0)+0),f
u2407:
	decfsz	((??_lcd_data+0)+0),f
	goto	u2407
	decfsz	((??_lcd_data+0)+0+1),f
	goto	u2407
	clrwdt
opt asmopt_on

	line	82
	
l2046:	
;project.c: 82: RC2 = 0;
	bcf	status, 5	;RP0=0, select bank0
	bcf	status, 6	;RP1=0, select bank0
	bcf	(58/8),(58)&7
	line	83
	
l728:	
	return
	opt stack 0
GLOBAL	__end_of_lcd_data
	__end_of_lcd_data:
;; =============== function _lcd_data ends ============

	signat	_lcd_data,4216
	global	_lcd_cmd
psect	text251,local,class=CODE,delta=2
global __ptext251
__ptext251:

;; *************** function _lcd_cmd *****************
;; Defined at:
;;		line 66 in file "C:\Users\r_m_a\Desktop\UART TO GSM\project\project.c"
;; Parameters:    Size  Location     Type
;;  cmd             1    wreg     unsigned char 
;; Auto vars:     Size  Location     Type
;;  cmd             1    2[COMMON] unsigned char 
;; Return value:  Size  Location     Type
;;		None               void
;; Registers used:
;;		wreg
;; Tracked objects:
;;		On entry : 0/0
;;		On exit  : 0/0
;;		Unchanged: 0/0
;; Data sizes:     COMMON   BANK0   BANK1   BANK3   BANK2
;;      Params:         0       0       0       0       0
;;      Locals:         1       0       0       0       0
;;      Temps:          2       0       0       0       0
;;      Totals:         3       0       0       0       0
;;Total ram usage:        3 bytes
;; Hardware stack levels used:    1
;; This function calls:
;;		Nothing
;; This function is called by:
;;		_lcd_init
;;		_sensor
;; This function uses a non-reentrant model
;;
psect	text251
	file	"C:\Users\r_m_a\Desktop\UART TO GSM\project\project.c"
	line	66
	global	__size_of_lcd_cmd
	__size_of_lcd_cmd	equ	__end_of_lcd_cmd-_lcd_cmd
	
_lcd_cmd:	
	opt	stack 6
; Regs used in _lcd_cmd: [wreg]
;lcd_cmd@cmd stored from wreg
	movwf	(lcd_cmd@cmd)
	line	67
	
l2036:	
;project.c: 67: RC0 = 0;
	bcf	status, 5	;RP0=0, select bank0
	bcf	status, 6	;RP1=0, select bank0
	bcf	(56/8),(56)&7
	line	68
;project.c: 68: RC1 = 0;
	bcf	(57/8),(57)&7
	line	69
;project.c: 69: RC2 = 1;
	bsf	(58/8),(58)&7
	line	70
	
l2038:	
;project.c: 70: PORTB=cmd;
	movf	(lcd_cmd@cmd),w
	movwf	(6)	;volatile
	line	71
;project.c: 71: _delay((unsigned long)((10)*(20000000/4000.0)));
	opt asmopt_off
movlw	65
movwf	((??_lcd_cmd+0)+0+1),f
	movlw	238
movwf	((??_lcd_cmd+0)+0),f
u2417:
	decfsz	((??_lcd_cmd+0)+0),f
	goto	u2417
	decfsz	((??_lcd_cmd+0)+0+1),f
	goto	u2417
	clrwdt
opt asmopt_on

	line	72
	
l2040:	
;project.c: 72: RC2 = 0;
	bcf	status, 5	;RP0=0, select bank0
	bcf	status, 6	;RP1=0, select bank0
	bcf	(58/8),(58)&7
	line	73
	
l725:	
	return
	opt stack 0
GLOBAL	__end_of_lcd_cmd
	__end_of_lcd_cmd:
;; =============== function _lcd_cmd ends ============

	signat	_lcd_cmd,4216
	global	_uart_print
psect	text252,local,class=CODE,delta=2
global __ptext252
__ptext252:

;; *************** function _uart_print *****************
;; Defined at:
;;		line 33 in file "C:\Users\r_m_a\Desktop\UART TO GSM\project\project.c"
;; Parameters:    Size  Location     Type
;;  s               1    wreg     PTR unsigned char 
;;		 -> no_message(19), phone(17), AT(5), 
;; Auto vars:     Size  Location     Type
;;  s               1    2[COMMON] PTR unsigned char 
;;		 -> no_message(19), phone(17), AT(5), 
;; Return value:  Size  Location     Type
;;		None               void
;; Registers used:
;;		wreg, fsr0l, fsr0h, status,2, status,0, pclath, cstack
;; Tracked objects:
;;		On entry : 0/0
;;		On exit  : 0/0
;;		Unchanged: 0/0
;; Data sizes:     COMMON   BANK0   BANK1   BANK3   BANK2
;;      Params:         0       0       0       0       0
;;      Locals:         1       0       0       0       0
;;      Temps:          1       0       0       0       0
;;      Totals:         2       0       0       0       0
;;Total ram usage:        2 bytes
;; Hardware stack levels used:    1
;; Hardware stack levels required when called:    1
;; This function calls:
;;		_uart_tx
;; This function is called by:
;;		_sensor
;; This function uses a non-reentrant model
;;
psect	text252
	file	"C:\Users\r_m_a\Desktop\UART TO GSM\project\project.c"
	line	33
	global	__size_of_uart_print
	__size_of_uart_print	equ	__end_of_uart_print-_uart_print
	
_uart_print:	
	opt	stack 5
; Regs used in _uart_print: [wreg-fsr0h+status,2+status,0+pclath+cstack]
;uart_print@s stored from wreg
	movwf	(uart_print@s)
	line	34
	
l2028:	
;project.c: 34: while(*s)
	goto	l2034
	
l712:	
	line	36
	
l2030:	
;project.c: 35: {
;project.c: 36: uart_tx(*s++);
	movf	(uart_print@s),w
	movwf	fsr0
	bcf	status, 7	;select IRP bank0
	movf	indf,w
	fcall	_uart_tx
	
l2032:	
	movlw	(01h)
	movwf	(??_uart_print+0)+0
	movf	(??_uart_print+0)+0,w
	addwf	(uart_print@s),f
	goto	l2034
	line	37
	
l711:	
	line	34
	
l2034:	
	movf	(uart_print@s),w
	movwf	fsr0
	bcf	status, 7	;select IRP bank0
	movf	indf,f
	skipz
	goto	u2231
	goto	u2230
u2231:
	goto	l2030
u2230:
	goto	l714
	
l713:	
	line	38
	
l714:	
	return
	opt stack 0
GLOBAL	__end_of_uart_print
	__end_of_uart_print:
;; =============== function _uart_print ends ============

	signat	_uart_print,4216
	global	_uart_init
psect	text253,local,class=CODE,delta=2
global __ptext253
__ptext253:

;; *************** function _uart_init *****************
;; Defined at:
;;		line 53 in file "C:\Users\r_m_a\Desktop\UART TO GSM\project\project.c"
;; Parameters:    Size  Location     Type
;;		None
;; Auto vars:     Size  Location     Type
;;		None
;; Return value:  Size  Location     Type
;;		None               void
;; Registers used:
;;		wreg
;; Tracked objects:
;;		On entry : 0/0
;;		On exit  : 0/0
;;		Unchanged: 0/0
;; Data sizes:     COMMON   BANK0   BANK1   BANK3   BANK2
;;      Params:         0       0       0       0       0
;;      Locals:         0       0       0       0       0
;;      Temps:          0       0       0       0       0
;;      Totals:         0       0       0       0       0
;;Total ram usage:        0 bytes
;; Hardware stack levels used:    1
;; This function calls:
;;		Nothing
;; This function is called by:
;;		_main
;; This function uses a non-reentrant model
;;
psect	text253
	file	"C:\Users\r_m_a\Desktop\UART TO GSM\project\project.c"
	line	53
	global	__size_of_uart_init
	__size_of_uart_init	equ	__end_of_uart_init-_uart_init
	
_uart_init:	
	opt	stack 7
; Regs used in _uart_init: [wreg]
	line	54
	
l1134:	
;project.c: 54: TRISD1=1;
	bsf	status, 5	;RP0=1, select bank1
	bcf	status, 6	;RP1=0, select bank1
	bsf	(1089/8)^080h,(1089)&7
	line	55
;project.c: 55: TRISD0=0;
	bcf	(1088/8)^080h,(1088)&7
	line	56
;project.c: 56: TRISC6=0;
	bcf	(1086/8)^080h,(1086)&7
	line	57
;project.c: 57: TRISC7=1;
	bsf	(1087/8)^080h,(1087)&7
	line	58
	
l1136:	
;project.c: 58: TXSTA=0X20;
	movlw	(020h)
	movwf	(152)^080h	;volatile
	line	59
;project.c: 59: RCSTA=0X90;
	movlw	(090h)
	bcf	status, 5	;RP0=0, select bank0
	bcf	status, 6	;RP1=0, select bank0
	movwf	(24)	;volatile
	line	60
;project.c: 60: SPBRG=31;
	movlw	(01Fh)
	bsf	status, 5	;RP0=1, select bank1
	bcf	status, 6	;RP1=0, select bank1
	movwf	(153)^080h	;volatile
	line	61
	
l1138:	
;project.c: 61: TXIF=0;
	bcf	status, 5	;RP0=0, select bank0
	bcf	status, 6	;RP1=0, select bank0
	bcf	(100/8),(100)&7
	line	62
	
l1140:	
;project.c: 62: RCIF=0;
	bcf	(101/8),(101)&7
	line	63
	
l722:	
	return
	opt stack 0
GLOBAL	__end_of_uart_init
	__end_of_uart_init:
;; =============== function _uart_init ends ============

	signat	_uart_init,88
	global	_led
psect	text254,local,class=CODE,delta=2
global __ptext254
__ptext254:

;; *************** function _led *****************
;; Defined at:
;;		line 41 in file "C:\Users\r_m_a\Desktop\UART TO GSM\project\project.c"
;; Parameters:    Size  Location     Type
;;		None
;; Auto vars:     Size  Location     Type
;;		None
;; Return value:  Size  Location     Type
;;		None               void
;; Registers used:
;;		None
;; Tracked objects:
;;		On entry : 0/0
;;		On exit  : 0/0
;;		Unchanged: 0/0
;; Data sizes:     COMMON   BANK0   BANK1   BANK3   BANK2
;;      Params:         0       0       0       0       0
;;      Locals:         0       0       0       0       0
;;      Temps:          0       0       0       0       0
;;      Totals:         0       0       0       0       0
;;Total ram usage:        0 bytes
;; Hardware stack levels used:    1
;; This function calls:
;;		Nothing
;; This function is called by:
;;		_sensor
;; This function uses a non-reentrant model
;;
psect	text254
	file	"C:\Users\r_m_a\Desktop\UART TO GSM\project\project.c"
	line	41
	global	__size_of_led
	__size_of_led	equ	__end_of_led-_led
	
_led:	
	opt	stack 6
; Regs used in _led: []
	line	42
	
l2024:	
;project.c: 42: if(RD1==1)
	bcf	status, 5	;RP0=0, select bank0
	bcf	status, 6	;RP1=0, select bank0
	btfss	(65/8),(65)&7
	goto	u2221
	goto	u2220
u2221:
	goto	l717
u2220:
	line	44
	
l2026:	
;project.c: 43: {
;project.c: 44: RD0=1;
	bsf	(64/8),(64)&7
	line	45
;project.c: 45: }
	goto	l719
	line	46
	
l717:	
	line	48
;project.c: 46: else
;project.c: 47: {
;project.c: 48: RD0=0;
	bcf	(64/8),(64)&7
	goto	l719
	line	49
	
l718:	
	line	50
	
l719:	
	return
	opt stack 0
GLOBAL	__end_of_led
	__end_of_led:
;; =============== function _led ends ============

	signat	_led,88
	global	_uart_tx
psect	text255,local,class=CODE,delta=2
global __ptext255
__ptext255:

;; *************** function _uart_tx *****************
;; Defined at:
;;		line 19 in file "C:\Users\r_m_a\Desktop\UART TO GSM\project\project.c"
;; Parameters:    Size  Location     Type
;;  data            1    wreg     unsigned char 
;; Auto vars:     Size  Location     Type
;;  data            1    0[COMMON] unsigned char 
;; Return value:  Size  Location     Type
;;		None               void
;; Registers used:
;;		wreg
;; Tracked objects:
;;		On entry : 0/0
;;		On exit  : 0/0
;;		Unchanged: 0/0
;; Data sizes:     COMMON   BANK0   BANK1   BANK3   BANK2
;;      Params:         0       0       0       0       0
;;      Locals:         1       0       0       0       0
;;      Temps:          0       0       0       0       0
;;      Totals:         1       0       0       0       0
;;Total ram usage:        1 bytes
;; Hardware stack levels used:    1
;; This function calls:
;;		Nothing
;; This function is called by:
;;		_uart_print
;;		_sensor
;; This function uses a non-reentrant model
;;
psect	text255
	file	"C:\Users\r_m_a\Desktop\UART TO GSM\project\project.c"
	line	19
	global	__size_of_uart_tx
	__size_of_uart_tx	equ	__end_of_uart_tx-_uart_tx
	
_uart_tx:	
	opt	stack 6
; Regs used in _uart_tx: [wreg]
;uart_tx@data stored from wreg
	movwf	(uart_tx@data)
	line	20
	
l2022:	
;project.c: 20: TXREG=data;
	movf	(uart_tx@data),w
	bcf	status, 5	;RP0=0, select bank0
	bcf	status, 6	;RP1=0, select bank0
	movwf	(25)	;volatile
	line	21
;project.c: 21: while(!TXIF);
	goto	l699
	
l700:	
	
l699:	
	btfss	(100/8),(100)&7
	goto	u2211
	goto	u2210
u2211:
	goto	l699
u2210:
	
l701:	
	line	22
;project.c: 22: TXIF=0;
	bcf	(100/8),(100)&7
	line	23
	
l702:	
	return
	opt stack 0
GLOBAL	__end_of_uart_tx
	__end_of_uart_tx:
;; =============== function _uart_tx ends ============

	signat	_uart_tx,4216
psect	text256,local,class=CODE,delta=2
global __ptext256
__ptext256:
	global	btemp
	btemp set 07Eh

	DABS	1,126,2	;btemp
	global	wtemp0
	wtemp0 set btemp
	end
